; Function Attrs: nounwind uwtable
define dso_local nonnull ptr @_Py_GetConfig() local_unnamed_addr #1 {
  %1 = tail call align 8 ptr @llvm.threadlocal.address.p0(ptr align 8 @_Py_tss_tstate)
  %2 = load ptr, ptr %1, align 8, !tbaa !4
  %3 = icmp eq ptr %2, null
  br i1 %3, label %4, label %_Py_EnsureFuncTstateNotNULL.exit

4:                                                ; preds = %0
  tail call void @_Py_FatalErrorFunc(ptr noundef nonnull @__func__._Py_GetConfig, ptr noundef nonnull @.str.162) #17
  unreachable

_Py_EnsureFuncTstateNotNULL.exit:                 ; preds = %0
  %5 = getelementptr inbounds nuw i8, ptr %2, i64 16
  %6 = load ptr, ptr %5, align 8, !tbaa !221
  %7 = getelementptr inbounds nuw i8, ptr %6, i64 7992
  ret ptr %7
}